; ModuleID = '40/3046.c'
source_filename = "40/3046.c"
target datalayout = "e-m:e-p270:32:32-p271:32:32-p272:64:64-i64:64-f80:128-n8:16:32:64-S128"
target triple = "x86_64-pc-linux-gnu"

@.str = private unnamed_addr constant [16 x i8] c"%lf%lf%lf%lf%lf\00", align 1
@.str.1 = private unnamed_addr constant [6 x i8] c"%.4lf\00", align 1
@.str.2 = private unnamed_addr constant [14 x i8] c"Invalid input\00", align 1

; Function Attrs: noinline nounwind uwtable
define dso_local i32 @main() #0 {
  %1 = alloca i32, align 4
  %2 = alloca double, align 8
  %3 = alloca double, align 8
  %4 = alloca double, align 8
  %5 = alloca double, align 8
  %6 = alloca double, align 8
  %7 = alloca double, align 8
  store i32 0, i32* %1, align 4
  %8 = call i32 (i8*, ...) @__isoc99_scanf(i8* getelementptr inbounds ([16 x i8], [16 x i8]* @.str, i64 0, i64 0), double* %2, double* %3, double* %4, double* %5, double* %6)
  %9 = load double, double* %2, align 8
  %10 = load double, double* %3, align 8
  %11 = load double, double* %4, align 8
  %12 = load double, double* %5, align 8
  %13 = load double, double* %6, align 8
  %14 = call double @f(double %9, double %10, double %11, double %12, double %13)
  store double %14, double* %7, align 8
  %15 = load double, double* %7, align 8
  %16 = fcmp une double %15, 0.000000e+00
  br i1 %16, label %17, label %20

17:                                               ; preds = %0
  %18 = load double, double* %7, align 8
  %19 = call i32 (i8*, ...) @printf(i8* getelementptr inbounds ([6 x i8], [6 x i8]* @.str.1, i64 0, i64 0), double %18)
  br label %20

20:                                               ; preds = %17, %0
  ret i32 0
}

declare dso_local i32 @__isoc99_scanf(i8*, ...) #1

; Function Attrs: noinline nounwind uwtable
define dso_local double @f(double %0, double %1, double %2, double %3, double %4) #0 {
  %6 = alloca double, align 8
  %7 = alloca double, align 8
  %8 = alloca double, align 8
  %9 = alloca double, align 8
  %10 = alloca double, align 8
  %11 = alloca double, align 8
  %12 = alloca double, align 8
  %13 = alloca double, align 8
  store double %0, double* %7, align 8
  store double %1, double* %8, align 8
  store double %2, double* %9, align 8
  store double %3, double* %10, align 8
  store double %4, double* %11, align 8
  %14 = load double, double* %7, align 8
  %15 = load double, double* %8, align 8
  %16 = fadd double %14, %15
  %17 = load double, double* %9, align 8
  %18 = fadd double %16, %17
  %19 = load double, double* %10, align 8
  %20 = fadd double %18, %19
  %21 = fdiv double %20, 2.000000e+00
  store double %21, double* %13, align 8
  %22 = load double, double* %13, align 8
  %23 = load double, double* %7, align 8
  %24 = fsub double %22, %23
  %25 = load double, double* %13, align 8
  %26 = load double, double* %8, align 8
  %27 = fsub double %25, %26
  %28 = fmul double %24, %27
  %29 = load double, double* %13, align 8
  %30 = load double, double* %9, align 8
  %31 = fsub double %29, %30
  %32 = fmul double %28, %31
  %33 = load double, double* %13, align 8
  %34 = load double, double* %10, align 8
  %35 = fsub double %33, %34
  %36 = fmul double %32, %35
  %37 = load double, double* %7, align 8
  %38 = load double, double* %8, align 8
  %39 = fmul double %37, %38
  %40 = load double, double* %9, align 8
  %41 = fmul double %39, %40
  %42 = load double, double* %10, align 8
  %43 = fmul double %41, %42
  %44 = load double, double* %11, align 8
  %45 = fmul double %44, 1.000000e+02
  %46 = fdiv double %45, 3.600000e+02
  %47 = call double @cos(double %46) #3
  %48 = fmul double %43, %47
  %49 = load double, double* %11, align 8
  %50 = fmul double %49, 1.000000e+02
  %51 = fdiv double %50, 3.600000e+02
  %52 = call double @cos(double %51) #3
  %53 = fmul double %48, %52
  %54 = fsub double %36, %53
  %55 = fcmp olt double %54, 0.000000e+00
  br i1 %55, label %56, label %58

56:                                               ; preds = %5
  %57 = call i32 (i8*, ...) @printf(i8* getelementptr inbounds ([14 x i8], [14 x i8]* @.str.2, i64 0, i64 0))
  store double 0.000000e+00, double* %6, align 8
  br label %94

58:                                               ; preds = %5
  %59 = load double, double* %13, align 8
  %60 = load double, double* %7, align 8
  %61 = fsub double %59, %60
  %62 = load double, double* %13, align 8
  %63 = load double, double* %8, align 8
  %64 = fsub double %62, %63
  %65 = fmul double %61, %64
  %66 = load double, double* %13, align 8
  %67 = load double, double* %9, align 8
  %68 = fsub double %66, %67
  %69 = fmul double %65, %68
  %70 = load double, double* %13, align 8
  %71 = load double, double* %10, align 8
  %72 = fsub double %70, %71
  %73 = fmul double %69, %72
  %74 = load double, double* %7, align 8
  %75 = load double, double* %8, align 8
  %76 = fmul double %74, %75
  %77 = load double, double* %9, align 8
  %78 = fmul double %76, %77
  %79 = load double, double* %10, align 8
  %80 = fmul double %78, %79
  %81 = load double, double* %11, align 8
  %82 = fmul double %81, 1.000000e+02
  %83 = fdiv double %82, 3.600000e+02
  %84 = call double @cos(double %83) #3
  %85 = fmul double %80, %84
  %86 = load double, double* %11, align 8
  %87 = fmul double %86, 1.000000e+02
  %88 = fdiv double %87, 3.600000e+02
  %89 = call double @cos(double %88) #3
  %90 = fmul double %85, %89
  %91 = fsub double %73, %90
  %92 = call double @sqrt(double %91) #3
  store double %92, double* %12, align 8
  %93 = load double, double* %12, align 8
  store double %93, double* %6, align 8
  br label %94

94:                                               ; preds = %58, %56
  %95 = load double, double* %6, align 8
  ret double %95
}

declare dso_local i32 @printf(i8*, ...) #1

; Function Attrs: nounwind
declare dso_local double @cos(double) #2

; Function Attrs: nounwind
declare dso_local double @sqrt(double) #2


!llvm.module.flags = !{!0}
!llvm.ident = !{!1}

!0 = !{i32 1, !"wchar_size", i32 4}
!1 = !{!"clang version 10.0.0-4ubuntu1 "}
